target datalayout = "e-m:e-p270:32:32-p271:32:32-p272:64:64-i64:64-i128:128-f80:128-n8:16:32:64-S128"
target triple = "x86_64-pc-linux-gnu"

%struct.uat_channel_t = type { i32 }

@uat_bitchannels = internal global ptr null, align 8
@num_channels_uat = internal global i32 0, align 4

; Function Attrs: alwaysinline nounwind
define internal ptr @memset.inline(ptr %0, i32 %1, i64 %2) #5 {
  %4 = alloca ptr, align 8
  %5 = alloca i32, align 4
  %6 = alloca i64, align 8
  store ptr %0, ptr %4, align 8
  store i32 %1, ptr %5, align 4
  store i64 %2, ptr %6, align 8
  %7 = load ptr, ptr %4, align 8
  %8 = load i32, ptr %5, align 4
  %9 = load i64, ptr %6, align 8
  %10 = load ptr, ptr %4, align 8
  %11 = call i64 @llvm.objectsize.i64.p0(ptr %10, i1 false, i1 true, i1 true)
  %12 = call ptr @__memset_chk(ptr noundef %7, i32 noundef %8, i64 noundef %9, i64 noundef %11) #8
  ret ptr %12
}

; Function Attrs: nounwind null_pointer_is_valid sspstrong uwtable
define internal void @vcdu_prefs_apply_cb() #3 {
  %1 = alloca i32, align 4
  call void @llvm.lifetime.start.p0(i64 4, ptr %1) #8
  %2 = load i32, ptr @num_channels_uat, align 4
  %3 = icmp ugt i32 %2, 0
  br i1 %3, label %4, label %23

4:                                                ; preds = %0
  %5 = call ptr @memset.inline(ptr noundef @bitstream_channels, i32 noundef 0, i64 noundef 256) #8
  store i32 0, ptr %1, align 4
  br label %6

6:                                                ; preds = %19, %4
  %7 = load i32, ptr %1, align 4
  %8 = load i32, ptr @num_channels_uat, align 4
  %9 = icmp ult i32 %7, %8
  br i1 %9, label %10, label %22

10:                                               ; preds = %6
  %11 = load ptr, ptr @uat_bitchannels, align 8
  %12 = load i32, ptr %1, align 4
  %13 = zext i32 %12 to i64
  %14 = getelementptr %struct.uat_channel_t, ptr %11, i64 %13
  %15 = getelementptr inbounds nuw %struct.uat_channel_t, ptr %14, i32 0, i32 0
  %16 = load i32, ptr %15, align 4
  %17 = zext i32 %16 to i64
  %18 = getelementptr [64 x i32], ptr @bitstream_channels, i64 0, i64 %17
  store i32 1, ptr %18, align 4
  br label %19

19:                                               ; preds = %10
  %20 = load i32, ptr %1, align 4
  %21 = add i32 %20, 1
  store i32 %21, ptr %1, align 4
  br label %6, !llvm.loop !10

22:                                               ; preds = %6
  br label %23

23:                                               ; preds = %22, %0
  call void @llvm.lifetime.end.p0(i64 4, ptr %1) #8
  ret void
}