; Function Attrs: nofree norecurse nosync nounwind null_pointer_is_valid sspstrong memory(readwrite, argmem: read, inaccessiblemem: none) uwtable
define internal void @vcdu_prefs_apply_cb() #3 {
  %1 = load i32, ptr @num_channels_uat, align 4
  %.not = icmp eq i32 %1, 0
  br i1 %.not, label %.loopexit, label %2

2:                                                ; preds = %0
  tail call void @llvm.memset.p0.i64(ptr noundef nonnull align 16 dereferenceable(256) @bitstream_channels, i8 noundef 0, i64 noundef 256, i1 noundef false) #7
  %3 = load ptr, ptr @uat_bitchannels, align 8
  %wide.trip.count = zext i32 %1 to i64
  br label %4

4:                                                ; preds = %2, %4
  %indvars.iv = phi i64 [ 0, %2 ], [ %indvars.iv.next, %4 ]
  %5 = getelementptr %struct.uat_channel_t, ptr %3, i64 %indvars.iv
  %6 = load i32, ptr %5, align 4
  %7 = zext i32 %6 to i64
  %8 = getelementptr [64 x i32], ptr @bitstream_channels, i64 0, i64 %7
  store i32 1, ptr %8, align 4
  %indvars.iv.next = add nuw nsw i64 %indvars.iv, 1
  %exitcond.not = icmp eq i64 %indvars.iv.next, %wide.trip.count
  br i1 %exitcond.not, label %.loopexit, label %4, !llvm.loop !9

.loopexit:                                        ; preds = %4, %0
  ret void
}